
hackathon.elf:     file format elf32-avr

Sections:
Idx Name          Size      VMA       LMA       File off  Algn
  0 .text         00000776  00000000  00000000  00000094  2**1
                  CONTENTS, ALLOC, LOAD, READONLY, CODE
  1 .data         00000388  00802000  00000776  0000080a  2**0
                  CONTENTS, ALLOC, LOAD, DATA
  2 .bss          00000007  00802388  00802388  00000b92  2**0
                  ALLOC
  3 .comment      00000030  00000000  00000000  00000b92  2**0
                  CONTENTS, READONLY
  4 .note.gnu.avr.deviceinfo 00000040  00000000  00000000  00000bc4  2**2
                  CONTENTS, READONLY
  5 .debug_aranges 00000140  00000000  00000000  00000c08  2**3
                  CONTENTS, READONLY, DEBUGGING
  6 .debug_info   000070b8  00000000  00000000  00000d48  2**0
                  CONTENTS, READONLY, DEBUGGING
  7 .debug_abbrev 00004192  00000000  00000000  00007e00  2**0
                  CONTENTS, READONLY, DEBUGGING
  8 .debug_line   00000e7e  00000000  00000000  0000bf92  2**0
                  CONTENTS, READONLY, DEBUGGING
  9 .debug_frame  00000224  00000000  00000000  0000ce10  2**2
                  CONTENTS, READONLY, DEBUGGING
 10 .debug_str    00004e00  00000000  00000000  0000d034  2**0
                  CONTENTS, READONLY, DEBUGGING
 11 .debug_loc    00000415  00000000  00000000  00011e34  2**0
                  CONTENTS, READONLY, DEBUGGING
 12 .debug_ranges 000000d0  00000000  00000000  00012249  2**0
                  CONTENTS, READONLY, DEBUGGING

Disassembly of section .text:

00000000 <__vectors>:
   0:	0c 94 2b 01 	jmp	0x256	; 0x256 <__ctors_end>
   4:	0c 94 51 01 	jmp	0x2a2	; 0x2a2 <__bad_interrupt>
   8:	0c 94 51 01 	jmp	0x2a2	; 0x2a2 <__bad_interrupt>
   c:	0c 94 51 01 	jmp	0x2a2	; 0x2a2 <__bad_interrupt>
  10:	0c 94 51 01 	jmp	0x2a2	; 0x2a2 <__bad_interrupt>
  14:	0c 94 51 01 	jmp	0x2a2	; 0x2a2 <__bad_interrupt>
  18:	0c 94 51 01 	jmp	0x2a2	; 0x2a2 <__bad_interrupt>
  1c:	0c 94 51 01 	jmp	0x2a2	; 0x2a2 <__bad_interrupt>
  20:	0c 94 51 01 	jmp	0x2a2	; 0x2a2 <__bad_interrupt>
  24:	0c 94 51 01 	jmp	0x2a2	; 0x2a2 <__bad_interrupt>
  28:	0c 94 51 01 	jmp	0x2a2	; 0x2a2 <__bad_interrupt>
  2c:	0c 94 51 01 	jmp	0x2a2	; 0x2a2 <__bad_interrupt>
  30:	0c 94 51 01 	jmp	0x2a2	; 0x2a2 <__bad_interrupt>
  34:	0c 94 51 01 	jmp	0x2a2	; 0x2a2 <__bad_interrupt>
  38:	0c 94 51 01 	jmp	0x2a2	; 0x2a2 <__bad_interrupt>
  3c:	0c 94 51 01 	jmp	0x2a2	; 0x2a2 <__bad_interrupt>
  40:	0c 94 51 01 	jmp	0x2a2	; 0x2a2 <__bad_interrupt>
  44:	0c 94 51 01 	jmp	0x2a2	; 0x2a2 <__bad_interrupt>
  48:	0c 94 51 01 	jmp	0x2a2	; 0x2a2 <__bad_interrupt>
  4c:	0c 94 51 01 	jmp	0x2a2	; 0x2a2 <__bad_interrupt>
  50:	0c 94 a8 01 	jmp	0x350	; 0x350 <__vector_20>
  54:	0c 94 51 01 	jmp	0x2a2	; 0x2a2 <__bad_interrupt>
  58:	0c 94 51 01 	jmp	0x2a2	; 0x2a2 <__bad_interrupt>
  5c:	0c 94 51 01 	jmp	0x2a2	; 0x2a2 <__bad_interrupt>
  60:	0c 94 51 01 	jmp	0x2a2	; 0x2a2 <__bad_interrupt>
  64:	0c 94 51 01 	jmp	0x2a2	; 0x2a2 <__bad_interrupt>
  68:	0c 94 51 01 	jmp	0x2a2	; 0x2a2 <__bad_interrupt>
  6c:	0c 94 51 01 	jmp	0x2a2	; 0x2a2 <__bad_interrupt>
  70:	0c 94 51 01 	jmp	0x2a2	; 0x2a2 <__bad_interrupt>
  74:	0c 94 51 01 	jmp	0x2a2	; 0x2a2 <__bad_interrupt>
  78:	0c 94 51 01 	jmp	0x2a2	; 0x2a2 <__bad_interrupt>
  7c:	0c 94 51 01 	jmp	0x2a2	; 0x2a2 <__bad_interrupt>
  80:	0c 94 51 01 	jmp	0x2a2	; 0x2a2 <__bad_interrupt>
  84:	0c 94 51 01 	jmp	0x2a2	; 0x2a2 <__bad_interrupt>
  88:	0c 94 51 01 	jmp	0x2a2	; 0x2a2 <__bad_interrupt>
  8c:	0c 94 51 01 	jmp	0x2a2	; 0x2a2 <__bad_interrupt>
  90:	0c 94 51 01 	jmp	0x2a2	; 0x2a2 <__bad_interrupt>
  94:	0c 94 51 01 	jmp	0x2a2	; 0x2a2 <__bad_interrupt>
  98:	0c 94 51 01 	jmp	0x2a2	; 0x2a2 <__bad_interrupt>
  9c:	0c 94 51 01 	jmp	0x2a2	; 0x2a2 <__bad_interrupt>
  a0:	0c 94 51 01 	jmp	0x2a2	; 0x2a2 <__bad_interrupt>
  a4:	0c 94 51 01 	jmp	0x2a2	; 0x2a2 <__bad_interrupt>
  a8:	0c 94 51 01 	jmp	0x2a2	; 0x2a2 <__bad_interrupt>
  ac:	0c 94 51 01 	jmp	0x2a2	; 0x2a2 <__bad_interrupt>
  b0:	0c 94 51 01 	jmp	0x2a2	; 0x2a2 <__bad_interrupt>
  b4:	0c 94 51 01 	jmp	0x2a2	; 0x2a2 <__bad_interrupt>
  b8:	0c 94 51 01 	jmp	0x2a2	; 0x2a2 <__bad_interrupt>
  bc:	0c 94 51 01 	jmp	0x2a2	; 0x2a2 <__bad_interrupt>
  c0:	0c 94 51 01 	jmp	0x2a2	; 0x2a2 <__bad_interrupt>
  c4:	0c 94 51 01 	jmp	0x2a2	; 0x2a2 <__bad_interrupt>
  c8:	0c 94 51 01 	jmp	0x2a2	; 0x2a2 <__bad_interrupt>
  cc:	0c 94 51 01 	jmp	0x2a2	; 0x2a2 <__bad_interrupt>
  d0:	0c 94 51 01 	jmp	0x2a2	; 0x2a2 <__bad_interrupt>
  d4:	0c 94 51 01 	jmp	0x2a2	; 0x2a2 <__bad_interrupt>
  d8:	0c 94 51 01 	jmp	0x2a2	; 0x2a2 <__bad_interrupt>
  dc:	0c 94 51 01 	jmp	0x2a2	; 0x2a2 <__bad_interrupt>
  e0:	0c 94 51 01 	jmp	0x2a2	; 0x2a2 <__bad_interrupt>
  e4:	0c 94 51 01 	jmp	0x2a2	; 0x2a2 <__bad_interrupt>
  e8:	0c 94 fb 02 	jmp	0x5f6	; 0x5f6 <__vector_58>
  ec:	0c 94 51 01 	jmp	0x2a2	; 0x2a2 <__bad_interrupt>
  f0:	0c 94 51 01 	jmp	0x2a2	; 0x2a2 <__bad_interrupt>
  f4:	0c 94 51 01 	jmp	0x2a2	; 0x2a2 <__bad_interrupt>
  f8:	0c 94 51 01 	jmp	0x2a2	; 0x2a2 <__bad_interrupt>
  fc:	0c 94 51 01 	jmp	0x2a2	; 0x2a2 <__bad_interrupt>
 100:	0c 94 51 01 	jmp	0x2a2	; 0x2a2 <__bad_interrupt>
 104:	0c 94 51 01 	jmp	0x2a2	; 0x2a2 <__bad_interrupt>
 108:	0c 94 51 01 	jmp	0x2a2	; 0x2a2 <__bad_interrupt>
 10c:	0c 94 51 01 	jmp	0x2a2	; 0x2a2 <__bad_interrupt>
 110:	0c 94 51 01 	jmp	0x2a2	; 0x2a2 <__bad_interrupt>
 114:	0c 94 51 01 	jmp	0x2a2	; 0x2a2 <__bad_interrupt>
 118:	0c 94 51 01 	jmp	0x2a2	; 0x2a2 <__bad_interrupt>
 11c:	0c 94 51 01 	jmp	0x2a2	; 0x2a2 <__bad_interrupt>
 120:	0c 94 51 01 	jmp	0x2a2	; 0x2a2 <__bad_interrupt>
 124:	0c 94 51 01 	jmp	0x2a2	; 0x2a2 <__bad_interrupt>
 128:	0c 94 51 01 	jmp	0x2a2	; 0x2a2 <__bad_interrupt>
 12c:	0c 94 51 01 	jmp	0x2a2	; 0x2a2 <__bad_interrupt>
 130:	0c 94 51 01 	jmp	0x2a2	; 0x2a2 <__bad_interrupt>
 134:	0c 94 51 01 	jmp	0x2a2	; 0x2a2 <__bad_interrupt>
 138:	0c 94 51 01 	jmp	0x2a2	; 0x2a2 <__bad_interrupt>
 13c:	0c 94 51 01 	jmp	0x2a2	; 0x2a2 <__bad_interrupt>
 140:	0c 94 51 01 	jmp	0x2a2	; 0x2a2 <__bad_interrupt>
 144:	0c 94 51 01 	jmp	0x2a2	; 0x2a2 <__bad_interrupt>
 148:	0c 94 51 01 	jmp	0x2a2	; 0x2a2 <__bad_interrupt>
 14c:	0c 94 51 01 	jmp	0x2a2	; 0x2a2 <__bad_interrupt>
 150:	0c 94 51 01 	jmp	0x2a2	; 0x2a2 <__bad_interrupt>
 154:	0c 94 51 01 	jmp	0x2a2	; 0x2a2 <__bad_interrupt>
 158:	0c 94 51 01 	jmp	0x2a2	; 0x2a2 <__bad_interrupt>
 15c:	0c 94 51 01 	jmp	0x2a2	; 0x2a2 <__bad_interrupt>
 160:	0c 94 51 01 	jmp	0x2a2	; 0x2a2 <__bad_interrupt>
 164:	0c 94 51 01 	jmp	0x2a2	; 0x2a2 <__bad_interrupt>
 168:	0c 94 51 01 	jmp	0x2a2	; 0x2a2 <__bad_interrupt>
 16c:	0c 94 51 01 	jmp	0x2a2	; 0x2a2 <__bad_interrupt>
 170:	0c 94 51 01 	jmp	0x2a2	; 0x2a2 <__bad_interrupt>
 174:	0c 94 51 01 	jmp	0x2a2	; 0x2a2 <__bad_interrupt>
 178:	0c 94 51 01 	jmp	0x2a2	; 0x2a2 <__bad_interrupt>
 17c:	0c 94 51 01 	jmp	0x2a2	; 0x2a2 <__bad_interrupt>
 180:	0c 94 51 01 	jmp	0x2a2	; 0x2a2 <__bad_interrupt>
 184:	0c 94 51 01 	jmp	0x2a2	; 0x2a2 <__bad_interrupt>
 188:	0c 94 51 01 	jmp	0x2a2	; 0x2a2 <__bad_interrupt>
 18c:	0c 94 51 01 	jmp	0x2a2	; 0x2a2 <__bad_interrupt>
 190:	0c 94 51 01 	jmp	0x2a2	; 0x2a2 <__bad_interrupt>
 194:	0c 94 51 01 	jmp	0x2a2	; 0x2a2 <__bad_interrupt>
 198:	0c 94 51 01 	jmp	0x2a2	; 0x2a2 <__bad_interrupt>
 19c:	0c 94 51 01 	jmp	0x2a2	; 0x2a2 <__bad_interrupt>
 1a0:	0c 94 51 01 	jmp	0x2a2	; 0x2a2 <__bad_interrupt>
 1a4:	0c 94 51 01 	jmp	0x2a2	; 0x2a2 <__bad_interrupt>
 1a8:	0c 94 51 01 	jmp	0x2a2	; 0x2a2 <__bad_interrupt>
 1ac:	0c 94 51 01 	jmp	0x2a2	; 0x2a2 <__bad_interrupt>
 1b0:	0c 94 51 01 	jmp	0x2a2	; 0x2a2 <__bad_interrupt>
 1b4:	0c 94 51 01 	jmp	0x2a2	; 0x2a2 <__bad_interrupt>
 1b8:	0c 94 51 01 	jmp	0x2a2	; 0x2a2 <__bad_interrupt>
 1bc:	0c 94 51 01 	jmp	0x2a2	; 0x2a2 <__bad_interrupt>
 1c0:	0c 94 51 01 	jmp	0x2a2	; 0x2a2 <__bad_interrupt>
 1c4:	0c 94 51 01 	jmp	0x2a2	; 0x2a2 <__bad_interrupt>
 1c8:	0c 94 51 01 	jmp	0x2a2	; 0x2a2 <__bad_interrupt>
 1cc:	0c 94 51 01 	jmp	0x2a2	; 0x2a2 <__bad_interrupt>
 1d0:	0c 94 51 01 	jmp	0x2a2	; 0x2a2 <__bad_interrupt>
 1d4:	0c 94 51 01 	jmp	0x2a2	; 0x2a2 <__bad_interrupt>
 1d8:	0c 94 51 01 	jmp	0x2a2	; 0x2a2 <__bad_interrupt>
 1dc:	0c 94 51 01 	jmp	0x2a2	; 0x2a2 <__bad_interrupt>
 1e0:	0c 94 51 01 	jmp	0x2a2	; 0x2a2 <__bad_interrupt>
 1e4:	0c 94 51 01 	jmp	0x2a2	; 0x2a2 <__bad_interrupt>
 1e8:	0c 94 51 01 	jmp	0x2a2	; 0x2a2 <__bad_interrupt>
 1ec:	0c 94 51 01 	jmp	0x2a2	; 0x2a2 <__bad_interrupt>
 1f0:	0c 94 51 01 	jmp	0x2a2	; 0x2a2 <__bad_interrupt>
 1f4:	0c 94 51 01 	jmp	0x2a2	; 0x2a2 <__bad_interrupt>
 1f8:	0c 94 51 01 	jmp	0x2a2	; 0x2a2 <__bad_interrupt>
 1fc:	14 02       	muls	r17, r20
 1fe:	16 02       	muls	r17, r22
 200:	16 02       	muls	r17, r22
 202:	16 02       	muls	r17, r22
 204:	16 02       	muls	r17, r22
 206:	16 02       	muls	r17, r22
 208:	16 02       	muls	r17, r22
 20a:	16 02       	muls	r17, r22
 20c:	16 02       	muls	r17, r22
 20e:	16 02       	muls	r17, r22
 210:	16 02       	muls	r17, r22
 212:	16 02       	muls	r17, r22
 214:	16 02       	muls	r17, r22
 216:	16 02       	muls	r17, r22
 218:	16 02       	muls	r17, r22
 21a:	16 02       	muls	r17, r22
 21c:	16 02       	muls	r17, r22
 21e:	16 02       	muls	r17, r22
 220:	16 02       	muls	r17, r22
 222:	16 02       	muls	r17, r22
 224:	06 02       	muls	r16, r22
 226:	0d 02       	muls	r16, r29
 228:	e3 01       	movw	r28, r6
 22a:	ea 01       	movw	r28, r20
 22c:	f1 01       	movw	r30, r2
 22e:	f8 01       	movw	r30, r16
 230:	ff 01       	movw	r30, r30

00000232 <__trampolines_start>:
 232:	0c 94 16 02 	jmp	0x42c	; 0x42c <__LOCK_REGION_LENGTH__+0x2c>
 236:	0c 94 ff 01 	jmp	0x3fe	; 0x3fe <set_note+0x70>
 23a:	0c 94 06 02 	jmp	0x40c	; 0x40c <__LOCK_REGION_LENGTH__+0xc>
 23e:	0c 94 0d 02 	jmp	0x41a	; 0x41a <__LOCK_REGION_LENGTH__+0x1a>
 242:	0c 94 14 02 	jmp	0x428	; 0x428 <__LOCK_REGION_LENGTH__+0x28>
 246:	0c 94 e3 01 	jmp	0x3c6	; 0x3c6 <set_note+0x38>
 24a:	0c 94 f8 01 	jmp	0x3f0	; 0x3f0 <set_note+0x62>
 24e:	0c 94 f1 01 	jmp	0x3e2	; 0x3e2 <set_note+0x54>
 252:	0c 94 ea 01 	jmp	0x3d4	; 0x3d4 <set_note+0x46>

00000256 <__ctors_end>:
 256:	11 24       	eor	r1, r1
 258:	1f be       	out	0x3f, r1	; 63
 25a:	cf ef       	ldi	r28, 0xFF	; 255
 25c:	cd bf       	out	0x3d, r28	; 61
 25e:	df e3       	ldi	r29, 0x3F	; 63
 260:	de bf       	out	0x3e, r29	; 62
 262:	00 e0       	ldi	r16, 0x00	; 0
 264:	0c bf       	out	0x3c, r16	; 60
 266:	18 be       	out	0x38, r1	; 56
 268:	19 be       	out	0x39, r1	; 57
 26a:	1a be       	out	0x3a, r1	; 58
 26c:	1b be       	out	0x3b, r1	; 59

0000026e <__do_copy_data>:
 26e:	13 e2       	ldi	r17, 0x23	; 35
 270:	a0 e0       	ldi	r26, 0x00	; 0
 272:	b0 e2       	ldi	r27, 0x20	; 32
 274:	e6 e7       	ldi	r30, 0x76	; 118
 276:	f7 e0       	ldi	r31, 0x07	; 7
 278:	00 e0       	ldi	r16, 0x00	; 0
 27a:	0b bf       	out	0x3b, r16	; 59
 27c:	02 c0       	rjmp	.+4      	; 0x282 <__do_copy_data+0x14>
 27e:	07 90       	elpm	r0, Z+
 280:	0d 92       	st	X+, r0
 282:	a8 38       	cpi	r26, 0x88	; 136
 284:	b1 07       	cpc	r27, r17
 286:	d9 f7       	brne	.-10     	; 0x27e <__do_copy_data+0x10>
 288:	1b be       	out	0x3b, r1	; 59

0000028a <__do_clear_bss>:
 28a:	23 e2       	ldi	r18, 0x23	; 35
 28c:	a8 e8       	ldi	r26, 0x88	; 136
 28e:	b3 e2       	ldi	r27, 0x23	; 35
 290:	01 c0       	rjmp	.+2      	; 0x294 <.do_clear_bss_start>

00000292 <.do_clear_bss_loop>:
 292:	1d 92       	st	X+, r1

00000294 <.do_clear_bss_start>:
 294:	af 38       	cpi	r26, 0x8F	; 143
 296:	b2 07       	cpc	r27, r18
 298:	e1 f7       	brne	.-8      	; 0x292 <.do_clear_bss_loop>
 29a:	0e 94 17 02 	call	0x42e	; 0x42e <main>
 29e:	0c 94 b9 03 	jmp	0x772	; 0x772 <_exit>

000002a2 <__bad_interrupt>:
 2a2:	0c 94 00 00 	jmp	0	; 0x0 <__vectors>

000002a6 <clock_init>:
 2a6:	8f 93       	push	r24
 2a8:	82 e0       	ldi	r24, 0x02	; 2
 2aa:	80 93 50 00 	sts	0x0050, r24	; 0x800050 <__TEXT_REGION_LENGTH__+0x700050>

000002ae <check32MHzStatus>:
 2ae:	80 91 51 00 	lds	r24, 0x0051	; 0x800051 <__TEXT_REGION_LENGTH__+0x700051>
 2b2:	81 ff       	sbrs	r24, 1
 2b4:	fc cf       	rjmp	.-8      	; 0x2ae <check32MHzStatus>
 2b6:	88 ed       	ldi	r24, 0xD8	; 216
 2b8:	80 93 34 00 	sts	0x0034, r24	; 0x800034 <__TEXT_REGION_LENGTH__+0x700034>
 2bc:	81 e0       	ldi	r24, 0x01	; 1
 2be:	80 93 40 00 	sts	0x0040, r24	; 0x800040 <__TEXT_REGION_LENGTH__+0x700040>

000002c2 <skip32MHZ_enable>:
 2c2:	88 ed       	ldi	r24, 0xD8	; 216
 2c4:	80 93 34 00 	sts	0x0034, r24	; 0x800034 <__TEXT_REGION_LENGTH__+0x700034>
 2c8:	80 e0       	ldi	r24, 0x00	; 0
 2ca:	80 93 41 00 	sts	0x0041, r24	; 0x800041 <__TEXT_REGION_LENGTH__+0x700041>
 2ce:	8f 91       	pop	r24
 2d0:	08 95       	ret

000002d2 <dac_init>:
 2d2:	e0 e0       	ldi	r30, 0x00	; 0
 2d4:	f3 e0       	ldi	r31, 0x03	; 3
 2d6:	88 e0       	ldi	r24, 0x08	; 8
 2d8:	80 83       	st	Z, r24
 2da:	82 e2       	ldi	r24, 0x22	; 34
 2dc:	81 83       	std	Z+1, r24	; 0x01
 2de:	12 82       	std	Z+2, r1	; 0x02
 2e0:	80 81       	ld	r24, Z
 2e2:	81 60       	ori	r24, 0x01	; 1
 2e4:	80 83       	st	Z, r24
 2e6:	08 95       	ret

000002e8 <dma_init>:
 2e8:	0f 93       	push	r16
 2ea:	1f 93       	push	r17
 2ec:	e0 e0       	ldi	r30, 0x00	; 0
 2ee:	f1 e0       	ldi	r31, 0x01	; 1
 2f0:	20 81       	ld	r18, Z
 2f2:	20 64       	ori	r18, 0x40	; 64
 2f4:	20 83       	st	Z, r18
 2f6:	25 e0       	ldi	r18, 0x05	; 5
 2f8:	20 8b       	std	Z+16, r18	; 0x10
 2fa:	21 e0       	ldi	r18, 0x01	; 1
 2fc:	23 8b       	std	Z+19, r18	; 0x13
 2fe:	20 e0       	ldi	r18, 0x00	; 0
 300:	32 e0       	ldi	r19, 0x02	; 2
 302:	24 8b       	std	Z+20, r18	; 0x14
 304:	35 8b       	std	Z+21, r19	; 0x15
 306:	80 8f       	std	Z+24, r24	; 0x18
 308:	09 2e       	mov	r0, r25
 30a:	00 0c       	add	r0, r0
 30c:	aa 0b       	sbc	r26, r26
 30e:	bb 0b       	sbc	r27, r27
 310:	09 2f       	mov	r16, r25
 312:	1a 2f       	mov	r17, r26
 314:	2b 2f       	mov	r18, r27
 316:	33 27       	eor	r19, r19
 318:	01 8f       	std	Z+25, r16	; 0x19
 31a:	cd 01       	movw	r24, r26
 31c:	aa 27       	eor	r26, r26
 31e:	bb 27       	eor	r27, r27
 320:	82 8f       	std	Z+26, r24	; 0x1a
 322:	64 8f       	std	Z+28, r22	; 0x1c
 324:	75 8f       	std	Z+29, r23	; 0x1d
 326:	16 8e       	std	Z+30, r1	; 0x1e
 328:	81 89       	ldd	r24, Z+17	; 0x11
 32a:	88 23       	and	r24, r24
 32c:	ec f3       	brlt	.-6      	; 0x328 <dma_init+0x40>
 32e:	e0 e0       	ldi	r30, 0x00	; 0
 330:	f1 e0       	ldi	r31, 0x01	; 1
 332:	16 8a       	std	Z+22, r1	; 0x16
 334:	89 e5       	ldi	r24, 0x59	; 89
 336:	82 8b       	std	Z+18, r24	; 0x12
 338:	80 89       	ldd	r24, Z+16	; 0x10
 33a:	80 62       	ori	r24, 0x20	; 32
 33c:	80 8b       	std	Z+16, r24	; 0x10
 33e:	80 89       	ldd	r24, Z+16	; 0x10
 340:	80 68       	ori	r24, 0x80	; 128
 342:	80 8b       	std	Z+16, r24	; 0x10
 344:	80 81       	ld	r24, Z
 346:	80 68       	ori	r24, 0x80	; 128
 348:	80 83       	st	Z, r24
 34a:	1f 91       	pop	r17
 34c:	0f 91       	pop	r16
 34e:	08 95       	ret

00000350 <__vector_20>:
	PORTC.DIRSET = PIN7_bm;
}

void init_gpio(void) {
	PORTD.OUTSET = PIN4_bm | PIN6_bm;
	PORTD.DIRSET = PIN4_bm | PIN6_bm;
 350:	1f 92       	push	r1
 352:	0f 92       	push	r0
 354:	0f b6       	in	r0, 0x3f	; 63
 356:	0f 92       	push	r0
 358:	11 24       	eor	r1, r1
 35a:	08 b6       	in	r0, 0x38	; 56
 35c:	0f 92       	push	r0
 35e:	18 be       	out	0x38, r1	; 56
 360:	8f 93       	push	r24
 362:	81 e0       	ldi	r24, 0x01	; 1
 364:	80 93 88 23 	sts	0x2388, r24	; 0x802388 <__data_end>
 368:	8f 91       	pop	r24
 36a:	0f 90       	pop	r0
 36c:	08 be       	out	0x38, r0	; 56
 36e:	0f 90       	pop	r0
 370:	0f be       	out	0x3f, r0	; 63
 372:	0f 90       	pop	r0
 374:	1f 90       	pop	r1
 376:	18 95       	reti

00000378 <speaker_init>:
 378:	e0 e4       	ldi	r30, 0x40	; 64
 37a:	f6 e0       	ldi	r31, 0x06	; 6
 37c:	80 e8       	ldi	r24, 0x80	; 128
 37e:	85 83       	std	Z+5, r24	; 0x05
 380:	81 83       	std	Z+1, r24	; 0x01
 382:	08 95       	ret

00000384 <sys_interr_init>:
}


void sys_interr_init(void) {
	PMIC.CTRL = PMIC_LOLVLEN_bm | PMIC_MEDLVLEN_bm | PMIC_HILVLEN_bm;
 384:	87 e0       	ldi	r24, 0x07	; 7
 386:	80 93 a2 00 	sts	0x00A2, r24	; 0x8000a2 <__TEXT_REGION_LENGTH__+0x7000a2>
	sei();
 38a:	78 94       	sei
 38c:	08 95       	ret

0000038e <set_note>:
}

void set_note(char note) {
 38e:	e8 2f       	mov	r30, r24
	TCC0.CTRLA = TC_CLKSEL_OFF_gc;
 390:	10 92 00 08 	sts	0x0800, r1	; 0x800800 <__TEXT_REGION_LENGTH__+0x700800>
	while (TCC1.CNT < 3000);
 394:	a0 e4       	ldi	r26, 0x40	; 64
 396:	b8 e0       	ldi	r27, 0x08	; 8
 398:	90 96       	adiw	r26, 0x20	; 32
 39a:	2d 91       	ld	r18, X+
 39c:	3c 91       	ld	r19, X
 39e:	91 97       	sbiw	r26, 0x21	; 33
 3a0:	28 3b       	cpi	r18, 0xB8	; 184
 3a2:	3b 40       	sbci	r19, 0x0B	; 11
 3a4:	c8 f3       	brcs	.-14     	; 0x398 <set_note+0xa>
	TCC0.CTRLA = TC_CLKSEL_DIV1_gc;
 3a6:	81 e0       	ldi	r24, 0x01	; 1
 3a8:	80 93 00 08 	sts	0x0800, r24	; 0x800800 <__TEXT_REGION_LENGTH__+0x700800>
	switch(note) {
 3ac:	8e 2f       	mov	r24, r30
 3ae:	90 e0       	ldi	r25, 0x00	; 0
 3b0:	fc 01       	movw	r30, r24
 3b2:	bd 97       	sbiw	r30, 0x2d	; 45
 3b4:	eb 31       	cpi	r30, 0x1B	; 27
 3b6:	f1 05       	cpc	r31, r1
 3b8:	c8 f5       	brcc	.+114    	; 0x42c <__LOCK_REGION_LENGTH__+0x2c>
 3ba:	88 27       	eor	r24, r24
 3bc:	e2 50       	subi	r30, 0x02	; 2
 3be:	ff 4f       	sbci	r31, 0xFF	; 255
 3c0:	8f 4f       	sbci	r24, 0xFF	; 255
 3c2:	0c 94 b0 03 	jmp	0x760	; 0x760 <__tablejump2__>
		case 'C': {
			TCC0.PER = 120; // 1046.50 Hz
 3c6:	88 e7       	ldi	r24, 0x78	; 120
 3c8:	90 e0       	ldi	r25, 0x00	; 0
 3ca:	80 93 26 08 	sts	0x0826, r24	; 0x800826 <__TEXT_REGION_LENGTH__+0x700826>
 3ce:	90 93 27 08 	sts	0x0827, r25	; 0x800827 <__TEXT_REGION_LENGTH__+0x700827>
			break;
 3d2:	08 95       	ret
		}
		case 'D': {
			TCC0.PER = 108; // 1174.66 Hz
 3d4:	8c e6       	ldi	r24, 0x6C	; 108
 3d6:	90 e0       	ldi	r25, 0x00	; 0
 3d8:	80 93 26 08 	sts	0x0826, r24	; 0x800826 <__TEXT_REGION_LENGTH__+0x700826>
 3dc:	90 93 27 08 	sts	0x0827, r25	; 0x800827 <__TEXT_REGION_LENGTH__+0x700827>
			break;
 3e0:	08 95       	ret
		}
		case 'E': {
			TCC0.PER = 96; // 1318.51 Hz
 3e2:	80 e6       	ldi	r24, 0x60	; 96
 3e4:	90 e0       	ldi	r25, 0x00	; 0
 3e6:	80 93 26 08 	sts	0x0826, r24	; 0x800826 <__TEXT_REGION_LENGTH__+0x700826>
 3ea:	90 93 27 08 	sts	0x0827, r25	; 0x800827 <__TEXT_REGION_LENGTH__+0x700827>
			break;
 3ee:	08 95       	ret
		}
		case 'F': {
			TCC0.PER = 91; // 1396.91 Hz
 3f0:	8b e5       	ldi	r24, 0x5B	; 91
 3f2:	90 e0       	ldi	r25, 0x00	; 0
 3f4:	80 93 26 08 	sts	0x0826, r24	; 0x800826 <__TEXT_REGION_LENGTH__+0x700826>
 3f8:	90 93 27 08 	sts	0x0827, r25	; 0x800827 <__TEXT_REGION_LENGTH__+0x700827>
			break;
 3fc:	08 95       	ret
		}
		case 'G': {
			TCC0.PER = 81; // 1567.98 Hz
 3fe:	81 e5       	ldi	r24, 0x51	; 81
 400:	90 e0       	ldi	r25, 0x00	; 0
 402:	80 93 26 08 	sts	0x0826, r24	; 0x800826 <__TEXT_REGION_LENGTH__+0x700826>
 406:	90 93 27 08 	sts	0x0827, r25	; 0x800827 <__TEXT_REGION_LENGTH__+0x700827>
			break;
 40a:	08 95       	ret
		}
		case 'A': {
			TCC0.PER = 71; // 1760 Hz
 40c:	87 e4       	ldi	r24, 0x47	; 71
 40e:	90 e0       	ldi	r25, 0x00	; 0
 410:	80 93 26 08 	sts	0x0826, r24	; 0x800826 <__TEXT_REGION_LENGTH__+0x700826>
 414:	90 93 27 08 	sts	0x0827, r25	; 0x800827 <__TEXT_REGION_LENGTH__+0x700827>
			break;
 418:	08 95       	ret
		}
		case 'B': {
			TCC0.PER = 64; // 1975.53 Hz
 41a:	80 e4       	ldi	r24, 0x40	; 64
 41c:	90 e0       	ldi	r25, 0x00	; 0
 41e:	80 93 26 08 	sts	0x0826, r24	; 0x800826 <__TEXT_REGION_LENGTH__+0x700826>
 422:	90 93 27 08 	sts	0x0827, r25	; 0x800827 <__TEXT_REGION_LENGTH__+0x700827>
			break;
 426:	08 95       	ret
		}
		case '-': {
			TCC0.CTRLA = TC_CLKSEL_OFF_gc;
 428:	10 92 00 08 	sts	0x0800, r1	; 0x800800 <__TEXT_REGION_LENGTH__+0x700800>
 42c:	08 95       	ret

0000042e <main>:
// IR Flags
volatile uint8_t codes[2];
volatile uint8_t nextCode = 5; // Init to 5 so it doesn't trigger UART stuff

int main(void)
{
 42e:	e7 e8       	ldi	r30, 0x87	; 135
 430:	f1 e2       	ldi	r31, 0x21	; 33
 432:	27 e8       	ldi	r18, 0x87	; 135
 434:	33 e2       	ldi	r19, 0x23	; 35
	for (int i = 0; i < 256; i++) {
		sin[i] = sin[i] << 2;
 436:	80 81       	ld	r24, Z
 438:	91 81       	ldd	r25, Z+1	; 0x01
 43a:	88 0f       	add	r24, r24
 43c:	99 1f       	adc	r25, r25
 43e:	88 0f       	add	r24, r24
 440:	99 1f       	adc	r25, r25
 442:	81 93       	st	Z+, r24
 444:	91 93       	st	Z+, r25
volatile uint8_t codes[2];
volatile uint8_t nextCode = 5; // Init to 5 so it doesn't trigger UART stuff

int main(void)
{
	for (int i = 0; i < 256; i++) {
 446:	e2 17       	cp	r30, r18
 448:	f3 07       	cpc	r31, r19
 44a:	a9 f7       	brne	.-22     	; 0x436 <main+0x8>
		sin[i] = sin[i] << 2;
	}
	clock_init();
 44c:	0e 94 53 01 	call	0x2a6	; 0x2a6 <clock_init>
	speaker_init();
 450:	0e 94 bc 01 	call	0x378	; 0x378 <speaker_init>
	//bscale=0; bsel=1110 => baud = 2MHz
	USARTE0_init(1110, 0);
 454:	60 e0       	ldi	r22, 0x00	; 0
 456:	86 e5       	ldi	r24, 0x56	; 86
 458:	94 e0       	ldi	r25, 0x04	; 4
 45a:	0e 94 61 03 	call	0x6c2	; 0x6c2 <USARTE0_init>
	dac_init();
 45e:	0e 94 69 01 	call	0x2d2	; 0x2d2 <dac_init>
	dma_init(sin, &DACA_CH1DATA);
 462:	6a e1       	ldi	r22, 0x1A	; 26
 464:	73 e0       	ldi	r23, 0x03	; 3
 466:	87 e8       	ldi	r24, 0x87	; 135
 468:	91 e2       	ldi	r25, 0x21	; 33
 46a:	0e 94 74 01 	call	0x2e8	; 0x2e8 <dma_init>
	
	//enable usart for low-level receive interrupts
	USARTE0_enable_interrupts('R', 'L');
 46e:	6c e4       	ldi	r22, 0x4C	; 76
 470:	82 e5       	ldi	r24, 0x52	; 82
 472:	0e 94 78 03 	call	0x6f0	; 0x6f0 <USARTE0_enable_interrupts>
	
	//enable frequency timer (DMA)
	tcc0_init();
 476:	0e 94 41 03 	call	0x682	; 0x682 <tcc0_init>
	
	//enable note timer (0.25 s)
	tcc1_init();
 47a:	0e 94 56 03 	call	0x6ac	; 0x6ac <tcc1_init>
	tcc1_enable();
 47e:	0e 94 4f 03 	call	0x69e	; 0x69e <tcc1_enable>
	sys_interr_init();
 482:	0e 94 c2 01 	call	0x384	; 0x384 <sys_interr_init>
	
	char* song = mary;
	uint8_t songSize = sizeof(mary);
 486:	13 e8       	ldi	r17, 0x83	; 131
	//enable note timer (0.25 s)
	tcc1_init();
	tcc1_enable();
	sys_interr_init();
	
	char* song = mary;
 488:	0f 2e       	mov	r0, r31
 48a:	f4 e0       	ldi	r31, 0x04	; 4
 48c:	8f 2e       	mov	r8, r31
 48e:	f1 e2       	ldi	r31, 0x21	; 33
 490:	9f 2e       	mov	r9, r31
 492:	f0 2d       	mov	r31, r0
	uint8_t songSize = sizeof(mary);
    while (1) 
    {
		if(nextCode == 2) {
			nextCode = 3;
 494:	0f 2e       	mov	r0, r31
 496:	f3 e0       	ldi	r31, 0x03	; 3
 498:	7f 2e       	mov	r7, r31
 49a:	f0 2d       	mov	r31, r0
			if(codes[0] == 0x55 && codes[1] == 0x77) { // Button 1 - 0x5577
 49c:	cd e8       	ldi	r28, 0x8D	; 141
 49e:	d3 e2       	ldi	r29, 0x23	; 35
				song = jingle;
				songVectIndexer = 0;
				songSize = sizeof(jingle);
				noteDuration = 0;
			} else if(codes[0] == 0x57 && codes[1] == 0xD7) { // Button 4 - 0x57D7
				song = bday;
 4a0:	0f 2e       	mov	r0, r31
 4a2:	f1 e0       	ldi	r31, 0x01	; 1
 4a4:	af 2e       	mov	r10, r31
 4a6:	f0 e2       	ldi	r31, 0x20	; 32
 4a8:	bf 2e       	mov	r11, r31
 4aa:	f0 2d       	mov	r31, r0
				songSize = sizeof(twinkle);
				noteDuration = 0;
			} else if(codes[0] == 0xD7 && codes[1] == 0x57) { // Button 3 - 0xD757
				song = jingle;
				songVectIndexer = 0;
				songSize = sizeof(jingle);
 4ac:	0f 2e       	mov	r0, r31
 4ae:	fb e7       	ldi	r31, 0x7B	; 123
 4b0:	3f 2e       	mov	r3, r31
 4b2:	f0 2d       	mov	r31, r0
				song = twinkle;
				songVectIndexer = 0;
				songSize = sizeof(twinkle);
				noteDuration = 0;
			} else if(codes[0] == 0xD7 && codes[1] == 0x57) { // Button 3 - 0xD757
				song = jingle;
 4b4:	0f 2e       	mov	r0, r31
 4b6:	f9 e8       	ldi	r31, 0x89	; 137
 4b8:	cf 2e       	mov	r12, r31
 4ba:	f0 e2       	ldi	r31, 0x20	; 32
 4bc:	df 2e       	mov	r13, r31
 4be:	f0 2d       	mov	r31, r0
				songSize = sizeof(mary);
				noteDuration = 0;
			} else if(codes[0] == 0x57 && codes[1] == 0x75) { // Button 2 - 0x5775
				song = twinkle;
				songVectIndexer = 0;
				songSize = sizeof(twinkle);
 4c0:	0f 2e       	mov	r0, r31
 4c2:	f5 e5       	ldi	r31, 0x55	; 85
 4c4:	4f 2e       	mov	r4, r31
 4c6:	f0 2d       	mov	r31, r0
				song = mary;
				songVectIndexer = 0;
				songSize = sizeof(mary);
				noteDuration = 0;
			} else if(codes[0] == 0x57 && codes[1] == 0x75) { // Button 2 - 0x5775
				song = twinkle;
 4c8:	0f 2e       	mov	r0, r31
 4ca:	f4 e3       	ldi	r31, 0x34	; 52
 4cc:	ef 2e       	mov	r14, r31
 4ce:	f0 e2       	ldi	r31, 0x20	; 32
 4d0:	ff 2e       	mov	r15, r31
 4d2:	f0 2d       	mov	r31, r0
		if(nextCode == 2) {
			nextCode = 3;
			if(codes[0] == 0x55 && codes[1] == 0x77) { // Button 1 - 0x5577
				song = mary;
				songVectIndexer = 0;
				songSize = sizeof(mary);
 4d4:	0f 2e       	mov	r0, r31
 4d6:	f3 e8       	ldi	r31, 0x83	; 131
 4d8:	5f 2e       	mov	r5, r31
 4da:	f0 2d       	mov	r31, r0
	
	char* song = mary;
	uint8_t songSize = sizeof(mary);
    while (1) 
    {
		if(nextCode == 2) {
 4dc:	80 91 00 20 	lds	r24, 0x2000	; 0x802000 <__data_start>
 4e0:	82 30       	cpi	r24, 0x02	; 2
 4e2:	09 f0       	breq	.+2      	; 0x4e6 <main+0xb8>
 4e4:	42 c0       	rjmp	.+132    	; 0x56a <main+0x13c>
			nextCode = 3;
 4e6:	70 92 00 20 	sts	0x2000, r7	; 0x802000 <__data_start>
			if(codes[0] == 0x55 && codes[1] == 0x77) { // Button 1 - 0x5577
 4ea:	88 81       	ld	r24, Y
 4ec:	85 35       	cpi	r24, 0x55	; 85
 4ee:	89 f4       	brne	.+34     	; 0x512 <main+0xe4>
 4f0:	89 81       	ldd	r24, Y+1	; 0x01
 4f2:	87 37       	cpi	r24, 0x77	; 119
 4f4:	71 f4       	brne	.+28     	; 0x512 <main+0xe4>
				song = mary;
				songVectIndexer = 0;
 4f6:	10 92 8b 23 	sts	0x238B, r1	; 0x80238b <songVectIndexer>
 4fa:	10 92 8c 23 	sts	0x238C, r1	; 0x80238c <songVectIndexer+0x1>
				songSize = sizeof(mary);
				noteDuration = 0;
 4fe:	10 92 8a 23 	sts	0x238A, r1	; 0x80238a <noteDuration>
		if(nextCode == 2) {
			nextCode = 3;
			if(codes[0] == 0x55 && codes[1] == 0x77) { // Button 1 - 0x5577
				song = mary;
				songVectIndexer = 0;
				songSize = sizeof(mary);
 502:	15 2d       	mov	r17, r5
    while (1) 
    {
		if(nextCode == 2) {
			nextCode = 3;
			if(codes[0] == 0x55 && codes[1] == 0x77) { // Button 1 - 0x5577
				song = mary;
 504:	0f 2e       	mov	r0, r31
 506:	f4 e0       	ldi	r31, 0x04	; 4
 508:	8f 2e       	mov	r8, r31
 50a:	f1 e2       	ldi	r31, 0x21	; 33
 50c:	9f 2e       	mov	r9, r31
 50e:	f0 2d       	mov	r31, r0
				songVectIndexer = 0;
				songSize = sizeof(mary);
				noteDuration = 0;
 510:	2c c0       	rjmp	.+88     	; 0x56a <main+0x13c>
			} else if(codes[0] == 0x57 && codes[1] == 0x75) { // Button 2 - 0x5775
 512:	88 81       	ld	r24, Y
 514:	87 35       	cpi	r24, 0x57	; 87
 516:	61 f4       	brne	.+24     	; 0x530 <main+0x102>
 518:	89 81       	ldd	r24, Y+1	; 0x01
 51a:	85 37       	cpi	r24, 0x75	; 117
 51c:	49 f4       	brne	.+18     	; 0x530 <main+0x102>
				song = twinkle;
				songVectIndexer = 0;
 51e:	10 92 8b 23 	sts	0x238B, r1	; 0x80238b <songVectIndexer>
 522:	10 92 8c 23 	sts	0x238C, r1	; 0x80238c <songVectIndexer+0x1>
				songSize = sizeof(twinkle);
				noteDuration = 0;
 526:	10 92 8a 23 	sts	0x238A, r1	; 0x80238a <noteDuration>
				songSize = sizeof(mary);
				noteDuration = 0;
			} else if(codes[0] == 0x57 && codes[1] == 0x75) { // Button 2 - 0x5775
				song = twinkle;
				songVectIndexer = 0;
				songSize = sizeof(twinkle);
 52a:	14 2d       	mov	r17, r4
				song = mary;
				songVectIndexer = 0;
				songSize = sizeof(mary);
				noteDuration = 0;
			} else if(codes[0] == 0x57 && codes[1] == 0x75) { // Button 2 - 0x5775
				song = twinkle;
 52c:	47 01       	movw	r8, r14
				songVectIndexer = 0;
				songSize = sizeof(twinkle);
				noteDuration = 0;
 52e:	1d c0       	rjmp	.+58     	; 0x56a <main+0x13c>
			} else if(codes[0] == 0xD7 && codes[1] == 0x57) { // Button 3 - 0xD757
 530:	88 81       	ld	r24, Y
 532:	87 3d       	cpi	r24, 0xD7	; 215
 534:	61 f4       	brne	.+24     	; 0x54e <main+0x120>
 536:	89 81       	ldd	r24, Y+1	; 0x01
 538:	87 35       	cpi	r24, 0x57	; 87
 53a:	49 f4       	brne	.+18     	; 0x54e <main+0x120>
				song = jingle;
				songVectIndexer = 0;
 53c:	10 92 8b 23 	sts	0x238B, r1	; 0x80238b <songVectIndexer>
 540:	10 92 8c 23 	sts	0x238C, r1	; 0x80238c <songVectIndexer+0x1>
				songSize = sizeof(jingle);
				noteDuration = 0;
 544:	10 92 8a 23 	sts	0x238A, r1	; 0x80238a <noteDuration>
				songSize = sizeof(twinkle);
				noteDuration = 0;
			} else if(codes[0] == 0xD7 && codes[1] == 0x57) { // Button 3 - 0xD757
				song = jingle;
				songVectIndexer = 0;
				songSize = sizeof(jingle);
 548:	13 2d       	mov	r17, r3
				song = twinkle;
				songVectIndexer = 0;
				songSize = sizeof(twinkle);
				noteDuration = 0;
			} else if(codes[0] == 0xD7 && codes[1] == 0x57) { // Button 3 - 0xD757
				song = jingle;
 54a:	46 01       	movw	r8, r12
				songVectIndexer = 0;
				songSize = sizeof(jingle);
				noteDuration = 0;
 54c:	0e c0       	rjmp	.+28     	; 0x56a <main+0x13c>
			} else if(codes[0] == 0x57 && codes[1] == 0xD7) { // Button 4 - 0x57D7
 54e:	88 81       	ld	r24, Y
 550:	87 35       	cpi	r24, 0x57	; 87
 552:	59 f4       	brne	.+22     	; 0x56a <main+0x13c>
 554:	89 81       	ldd	r24, Y+1	; 0x01
 556:	87 3d       	cpi	r24, 0xD7	; 215
 558:	41 f4       	brne	.+16     	; 0x56a <main+0x13c>
				song = bday;
				songVectIndexer = 0;
 55a:	10 92 8b 23 	sts	0x238B, r1	; 0x80238b <songVectIndexer>
 55e:	10 92 8c 23 	sts	0x238C, r1	; 0x80238c <songVectIndexer+0x1>
				songSize = sizeof(bday);
				noteDuration = 0;
 562:	10 92 8a 23 	sts	0x238A, r1	; 0x80238a <noteDuration>
				songSize = sizeof(jingle);
				noteDuration = 0;
			} else if(codes[0] == 0x57 && codes[1] == 0xD7) { // Button 4 - 0x57D7
				song = bday;
				songVectIndexer = 0;
				songSize = sizeof(bday);
 566:	13 e3       	ldi	r17, 0x33	; 51
				song = jingle;
				songVectIndexer = 0;
				songSize = sizeof(jingle);
				noteDuration = 0;
			} else if(codes[0] == 0x57 && codes[1] == 0xD7) { // Button 4 - 0x57D7
				song = bday;
 568:	45 01       	movw	r8, r10
				songSize = sizeof(bday);
				noteDuration = 0;
			}
		}
		
		if (quarterSecElapsed) {
 56a:	80 91 88 23 	lds	r24, 0x2388	; 0x802388 <__data_end>
 56e:	88 23       	and	r24, r24
 570:	09 f4       	brne	.+2      	; 0x574 <main+0x146>
 572:	b4 cf       	rjmp	.-152    	; 0x4dc <main+0xae>
			quarterSecElapsed = 0;
 574:	10 92 88 23 	sts	0x2388, r1	; 0x802388 <__data_end>
			if (!noteDuration) {
 578:	80 91 8a 23 	lds	r24, 0x238A	; 0x80238a <noteDuration>
 57c:	81 11       	cpse	r24, r1
 57e:	35 c0       	rjmp	.+106    	; 0x5ea <main+0x1bc>
				note = song[songVectIndexer++];
 580:	80 91 8b 23 	lds	r24, 0x238B	; 0x80238b <songVectIndexer>
 584:	90 91 8c 23 	lds	r25, 0x238C	; 0x80238c <songVectIndexer+0x1>
 588:	9c 01       	movw	r18, r24
 58a:	2f 5f       	subi	r18, 0xFF	; 255
 58c:	3f 4f       	sbci	r19, 0xFF	; 255
 58e:	20 93 8b 23 	sts	0x238B, r18	; 0x80238b <songVectIndexer>
 592:	30 93 8c 23 	sts	0x238C, r19	; 0x80238c <songVectIndexer+0x1>
 596:	f4 01       	movw	r30, r8
 598:	e8 0f       	add	r30, r24
 59a:	f9 1f       	adc	r31, r25
 59c:	80 81       	ld	r24, Z
 59e:	80 93 89 23 	sts	0x2389, r24	; 0x802389 <note>
				set_note(note);
 5a2:	80 91 89 23 	lds	r24, 0x2389	; 0x802389 <note>
 5a6:	0e 94 c7 01 	call	0x38e	; 0x38e <set_note>
				noteDuration = song[songVectIndexer++] - '0';
 5aa:	80 91 8b 23 	lds	r24, 0x238B	; 0x80238b <songVectIndexer>
 5ae:	90 91 8c 23 	lds	r25, 0x238C	; 0x80238c <songVectIndexer+0x1>
 5b2:	9c 01       	movw	r18, r24
 5b4:	2f 5f       	subi	r18, 0xFF	; 255
 5b6:	3f 4f       	sbci	r19, 0xFF	; 255
 5b8:	20 93 8b 23 	sts	0x238B, r18	; 0x80238b <songVectIndexer>
 5bc:	30 93 8c 23 	sts	0x238C, r19	; 0x80238c <songVectIndexer+0x1>
 5c0:	f4 01       	movw	r30, r8
 5c2:	e8 0f       	add	r30, r24
 5c4:	f9 1f       	adc	r31, r25
 5c6:	80 81       	ld	r24, Z
 5c8:	80 53       	subi	r24, 0x30	; 48
 5ca:	80 93 8a 23 	sts	0x238A, r24	; 0x80238a <noteDuration>
				if(songVectIndexer >= songSize-1) {
 5ce:	20 91 8b 23 	lds	r18, 0x238B	; 0x80238b <songVectIndexer>
 5d2:	30 91 8c 23 	lds	r19, 0x238C	; 0x80238c <songVectIndexer+0x1>
 5d6:	81 2f       	mov	r24, r17
 5d8:	90 e0       	ldi	r25, 0x00	; 0
 5da:	01 97       	sbiw	r24, 0x01	; 1
 5dc:	28 17       	cp	r18, r24
 5de:	39 07       	cpc	r19, r25
 5e0:	24 f0       	brlt	.+8      	; 0x5ea <main+0x1bc>
					songVectIndexer = 0;
 5e2:	10 92 8b 23 	sts	0x238B, r1	; 0x80238b <songVectIndexer>
 5e6:	10 92 8c 23 	sts	0x238C, r1	; 0x80238c <songVectIndexer+0x1>
				}
			}
			
			noteDuration--;
 5ea:	80 91 8a 23 	lds	r24, 0x238A	; 0x80238a <noteDuration>
 5ee:	81 50       	subi	r24, 0x01	; 1
 5f0:	80 93 8a 23 	sts	0x238A, r24	; 0x80238a <noteDuration>
 5f4:	73 cf       	rjmp	.-282    	; 0x4dc <main+0xae>

000005f6 <__vector_58>:
			TCC0.CTRLA = TC_CLKSEL_OFF_gc;
		}
	}
}

ISR(USARTE0_RXC_vect) {
 5f6:	1f 92       	push	r1
 5f8:	0f 92       	push	r0
 5fa:	0f b6       	in	r0, 0x3f	; 63
 5fc:	0f 92       	push	r0
 5fe:	11 24       	eor	r1, r1
 600:	08 b6       	in	r0, 0x38	; 56
 602:	0f 92       	push	r0
 604:	18 be       	out	0x38, r1	; 56
 606:	09 b6       	in	r0, 0x39	; 57
 608:	0f 92       	push	r0
 60a:	19 be       	out	0x39, r1	; 57
 60c:	0b b6       	in	r0, 0x3b	; 59
 60e:	0f 92       	push	r0
 610:	1b be       	out	0x3b, r1	; 59
 612:	2f 93       	push	r18
 614:	3f 93       	push	r19
 616:	4f 93       	push	r20
 618:	5f 93       	push	r21
 61a:	6f 93       	push	r22
 61c:	7f 93       	push	r23
 61e:	8f 93       	push	r24
 620:	9f 93       	push	r25
 622:	af 93       	push	r26
 624:	bf 93       	push	r27
 626:	ef 93       	push	r30
 628:	ff 93       	push	r31
	char newChar = USARTE0_in_char();
 62a:	0e 94 70 03 	call	0x6e0	; 0x6e0 <USARTE0_in_char>
	if(newChar == 0xD5) {
 62e:	85 3d       	cpi	r24, 0xD5	; 213
 630:	19 f4       	brne	.+6      	; 0x638 <__vector_58+0x42>
		nextCode = 0;
 632:	10 92 00 20 	sts	0x2000, r1	; 0x802000 <__data_start>
 636:	0e c0       	rjmp	.+28     	; 0x654 <__vector_58+0x5e>
	} else if (nextCode < 2) {
 638:	90 91 00 20 	lds	r25, 0x2000	; 0x802000 <__data_start>
 63c:	92 30       	cpi	r25, 0x02	; 2
 63e:	50 f4       	brcc	.+20     	; 0x654 <__vector_58+0x5e>
		codes[nextCode++] = newChar;
 640:	e0 91 00 20 	lds	r30, 0x2000	; 0x802000 <__data_start>
 644:	91 e0       	ldi	r25, 0x01	; 1
 646:	9e 0f       	add	r25, r30
 648:	90 93 00 20 	sts	0x2000, r25	; 0x802000 <__data_start>
 64c:	f0 e0       	ldi	r31, 0x00	; 0
 64e:	e3 57       	subi	r30, 0x73	; 115
 650:	fc 4d       	sbci	r31, 0xDC	; 220
 652:	80 83       	st	Z, r24
	}
}
 654:	ff 91       	pop	r31
 656:	ef 91       	pop	r30
 658:	bf 91       	pop	r27
 65a:	af 91       	pop	r26
 65c:	9f 91       	pop	r25
 65e:	8f 91       	pop	r24
 660:	7f 91       	pop	r23
 662:	6f 91       	pop	r22
 664:	5f 91       	pop	r21
 666:	4f 91       	pop	r20
 668:	3f 91       	pop	r19
 66a:	2f 91       	pop	r18
 66c:	0f 90       	pop	r0
 66e:	0b be       	out	0x3b, r0	; 59
 670:	0f 90       	pop	r0
 672:	09 be       	out	0x39, r0	; 57
 674:	0f 90       	pop	r0
 676:	08 be       	out	0x38, r0	; 56
 678:	0f 90       	pop	r0
 67a:	0f be       	out	0x3f, r0	; 63
 67c:	0f 90       	pop	r0
 67e:	1f 90       	pop	r1
 680:	18 95       	reti

00000682 <tcc0_init>:
 682:	e0 e0       	ldi	r30, 0x00	; 0
 684:	f8 e0       	ldi	r31, 0x08	; 8
 686:	87 e4       	ldi	r24, 0x47	; 71
 688:	90 e0       	ldi	r25, 0x00	; 0
 68a:	86 a3       	std	Z+38, r24	; 0x26
 68c:	97 a3       	std	Z+39, r25	; 0x27
 68e:	80 ec       	ldi	r24, 0xC0	; 192
 690:	80 93 80 01 	sts	0x0180, r24	; 0x800180 <__TEXT_REGION_LENGTH__+0x700180>
 694:	81 e0       	ldi	r24, 0x01	; 1
 696:	80 83       	st	Z, r24
 698:	10 a2       	std	Z+32, r1	; 0x20
 69a:	11 a2       	std	Z+33, r1	; 0x21
 69c:	08 95       	ret

0000069e <tcc1_enable>:
 69e:	e0 e4       	ldi	r30, 0x40	; 64
 6a0:	f8 e0       	ldi	r31, 0x08	; 8
 6a2:	10 a2       	std	Z+32, r1	; 0x20
 6a4:	11 a2       	std	Z+33, r1	; 0x21
 6a6:	87 e0       	ldi	r24, 0x07	; 7
 6a8:	80 83       	st	Z, r24
 6aa:	08 95       	ret

000006ac <tcc1_init>:
 6ac:	e0 e4       	ldi	r30, 0x40	; 64
 6ae:	f8 e0       	ldi	r31, 0x08	; 8
 6b0:	80 e4       	ldi	r24, 0x40	; 64
 6b2:	9f e1       	ldi	r25, 0x1F	; 31
 6b4:	86 a3       	std	Z+38, r24	; 0x26
 6b6:	97 a3       	std	Z+39, r25	; 0x27
 6b8:	81 e0       	ldi	r24, 0x01	; 1
 6ba:	86 83       	std	Z+6, r24	; 0x06
 6bc:	10 a2       	std	Z+32, r1	; 0x20
 6be:	11 a2       	std	Z+33, r1	; 0x21
 6c0:	08 95       	ret

000006c2 <USARTE0_init>:
 6c2:	24 e0       	ldi	r18, 0x04	; 4
 6c4:	20 93 82 06 	sts	0x0682, r18	; 0x800682 <__TEXT_REGION_LENGTH__+0x700682>
 6c8:	e0 ea       	ldi	r30, 0xA0	; 160
 6ca:	fa e0       	ldi	r31, 0x0A	; 10
 6cc:	86 83       	std	Z+6, r24	; 0x06
 6ce:	62 95       	swap	r22
 6d0:	60 7f       	andi	r22, 0xF0	; 240
 6d2:	96 2b       	or	r25, r22
 6d4:	97 83       	std	Z+7, r25	; 0x07
 6d6:	83 e0       	ldi	r24, 0x03	; 3
 6d8:	85 83       	std	Z+5, r24	; 0x05
 6da:	88 e1       	ldi	r24, 0x18	; 24
 6dc:	84 83       	std	Z+4, r24	; 0x04
 6de:	08 95       	ret

000006e0 <USARTE0_in_char>:
 6e0:	e0 ea       	ldi	r30, 0xA0	; 160
 6e2:	fa e0       	ldi	r31, 0x0A	; 10
 6e4:	81 81       	ldd	r24, Z+1	; 0x01
 6e6:	88 23       	and	r24, r24
 6e8:	ec f7       	brge	.-6      	; 0x6e4 <USARTE0_in_char+0x4>
 6ea:	80 91 a0 0a 	lds	r24, 0x0AA0	; 0x800aa0 <__TEXT_REGION_LENGTH__+0x700aa0>
 6ee:	08 95       	ret

000006f0 <USARTE0_enable_interrupts>:
 6f0:	98 2f       	mov	r25, r24
 6f2:	9f 7d       	andi	r25, 0xDF	; 223
 6f4:	92 35       	cpi	r25, 0x52	; 82
 6f6:	c9 f4       	brne	.+50     	; 0x72a <USARTE0_enable_interrupts+0x3a>
 6f8:	6f 7d       	andi	r22, 0xDF	; 223
 6fa:	6c 34       	cpi	r22, 0x4C	; 76
 6fc:	31 f4       	brne	.+12     	; 0x70a <USARTE0_enable_interrupts+0x1a>
 6fe:	e0 ea       	ldi	r30, 0xA0	; 160
 700:	fa e0       	ldi	r31, 0x0A	; 10
 702:	83 81       	ldd	r24, Z+3	; 0x03
 704:	80 61       	ori	r24, 0x10	; 16
 706:	83 83       	std	Z+3, r24	; 0x03
 708:	08 95       	ret
 70a:	6d 34       	cpi	r22, 0x4D	; 77
 70c:	31 f4       	brne	.+12     	; 0x71a <USARTE0_enable_interrupts+0x2a>
 70e:	e0 ea       	ldi	r30, 0xA0	; 160
 710:	fa e0       	ldi	r31, 0x0A	; 10
 712:	83 81       	ldd	r24, Z+3	; 0x03
 714:	80 62       	ori	r24, 0x20	; 32
 716:	83 83       	std	Z+3, r24	; 0x03
 718:	08 95       	ret
 71a:	68 34       	cpi	r22, 0x48	; 72
 71c:	01 f5       	brne	.+64     	; 0x75e <USARTE0_enable_interrupts+0x6e>
 71e:	e0 ea       	ldi	r30, 0xA0	; 160
 720:	fa e0       	ldi	r31, 0x0A	; 10
 722:	83 81       	ldd	r24, Z+3	; 0x03
 724:	80 63       	ori	r24, 0x30	; 48
 726:	83 83       	std	Z+3, r24	; 0x03
 728:	08 95       	ret
 72a:	84 37       	cpi	r24, 0x74	; 116
 72c:	c1 f4       	brne	.+48     	; 0x75e <USARTE0_enable_interrupts+0x6e>
 72e:	6f 7d       	andi	r22, 0xDF	; 223
 730:	6c 34       	cpi	r22, 0x4C	; 76
 732:	31 f4       	brne	.+12     	; 0x740 <USARTE0_enable_interrupts+0x50>
 734:	e0 ea       	ldi	r30, 0xA0	; 160
 736:	fa e0       	ldi	r31, 0x0A	; 10
 738:	83 81       	ldd	r24, Z+3	; 0x03
 73a:	81 60       	ori	r24, 0x01	; 1
 73c:	83 83       	std	Z+3, r24	; 0x03
 73e:	08 95       	ret
 740:	6d 34       	cpi	r22, 0x4D	; 77
 742:	31 f4       	brne	.+12     	; 0x750 <USARTE0_enable_interrupts+0x60>
 744:	e0 ea       	ldi	r30, 0xA0	; 160
 746:	fa e0       	ldi	r31, 0x0A	; 10
 748:	83 81       	ldd	r24, Z+3	; 0x03
 74a:	82 60       	ori	r24, 0x02	; 2
 74c:	83 83       	std	Z+3, r24	; 0x03
 74e:	08 95       	ret
 750:	68 34       	cpi	r22, 0x48	; 72
 752:	29 f4       	brne	.+10     	; 0x75e <USARTE0_enable_interrupts+0x6e>
 754:	e0 ea       	ldi	r30, 0xA0	; 160
 756:	fa e0       	ldi	r31, 0x0A	; 10
 758:	83 81       	ldd	r24, Z+3	; 0x03
 75a:	83 60       	ori	r24, 0x03	; 3
 75c:	83 83       	std	Z+3, r24	; 0x03
 75e:	08 95       	ret

00000760 <__tablejump2__>:
 760:	ee 0f       	add	r30, r30
 762:	ff 1f       	adc	r31, r31
 764:	88 1f       	adc	r24, r24
 766:	8b bf       	out	0x3b, r24	; 59
 768:	07 90       	elpm	r0, Z+
 76a:	f6 91       	elpm	r31, Z
 76c:	e0 2d       	mov	r30, r0
 76e:	1b be       	out	0x3b, r1	; 59
 770:	19 94       	eijmp

00000772 <_exit>:
 772:	f8 94       	cli

00000774 <__stop_program>:
 774:	ff cf       	rjmp	.-2      	; 0x774 <__stop_program>
